; Function Attrs: nounwind uwtable
define i32 @Gia_ManFindOneUnate(ptr noundef readonly captures(none) %0, ptr noundef readonly captures(none) %1, i32 noundef %2, ptr noundef readonly captures(none) %3, ptr noundef readonly captures(none) %4, i32 noundef %5) local_unnamed_addr #0 {
  %.not = icmp eq i32 %5, 0
  br i1 %.not, label %.split.us, label %7

7:                                                ; preds = %6
  %8 = tail call i32 (ptr, ...) @printf(ptr noundef nonnull dereferenceable(1) @.str.19)
  br label %.split

.split.us:                                        ; preds = %6
  %9 = load ptr, ptr %0, align 8, !tbaa !78
  %10 = load ptr, ptr %3, align 8, !tbaa !69
  %11 = load ptr, ptr %4, align 8, !tbaa !69
  tail call void @Gia_ManFindOneUnateInt(ptr noundef %9, ptr poison, ptr noundef %1, i32 noundef %2, ptr noundef %10, ptr noundef %11)
  %12 = getelementptr inbounds nuw i8, ptr %0, i64 8
  %13 = load ptr, ptr %12, align 8, !tbaa !78
  %14 = getelementptr inbounds nuw i8, ptr %3, i64 8
  %15 = load ptr, ptr %14, align 8, !tbaa !69
  %16 = getelementptr inbounds nuw i8, ptr %4, i64 8
  %17 = load ptr, ptr %16, align 8, !tbaa !69
  tail call void @Gia_ManFindOneUnateInt(ptr noundef %13, ptr poison, ptr noundef %1, i32 noundef %2, ptr noundef %15, ptr noundef %17)
  br label %.split25.us

.split:                                           ; preds = %7, %.split
  %18 = phi i1 [ true, %7 ], [ false, %.split ]
  %indvars.iv = phi i64 [ 0, %7 ], [ 1, %.split ]
  %19 = getelementptr inbounds nuw ptr, ptr %0, i64 %indvars.iv
  %20 = load ptr, ptr %19, align 8, !tbaa !78
  %21 = trunc nuw nsw i64 %indvars.iv to i32
  %22 = getelementptr inbounds nuw ptr, ptr %3, i64 %indvars.iv
  %23 = load ptr, ptr %22, align 8, !tbaa !69
  %24 = getelementptr inbounds nuw ptr, ptr %4, i64 %indvars.iv
  %25 = load ptr, ptr %24, align 8, !tbaa !69
  tail call void @Gia_ManFindOneUnateInt(ptr noundef %20, ptr poison, ptr noundef %1, i32 noundef %2, ptr noundef %23, ptr noundef %25)
  %26 = load ptr, ptr %22, align 8, !tbaa !69
  %27 = getelementptr i8, ptr %26, i64 4
  %.val = load i32, ptr %27, align 4, !tbaa !28
  %28 = tail call i32 (ptr, ...) @printf(ptr noundef nonnull dereferenceable(1) @.str.20, i32 noundef %21, i32 noundef %.val)
  br i1 %18, label %.split, label %.split25.us, !llvm.loop !137

.split25.us:                                      ; preds = %.split, %.split.us
  %29 = load ptr, ptr %3, align 8, !tbaa !69
  %30 = getelementptr inbounds nuw i8, ptr %3, i64 8
  %31 = load ptr, ptr %30, align 8, !tbaa !69
  %32 = getelementptr inbounds nuw i8, ptr %29, i64 8
  %33 = load ptr, ptr %32, align 8, !tbaa !30
  %34 = getelementptr inbounds nuw i8, ptr %31, i64 8
  %35 = load ptr, ptr %34, align 8, !tbaa !30
  %36 = getelementptr inbounds nuw i8, ptr %29, i64 4
  %37 = load i32, ptr %36, align 4, !tbaa !28
  %38 = sext i32 %37 to i64
  %39 = getelementptr inbounds i32, ptr %33, i64 %38
  %40 = getelementptr inbounds nuw i8, ptr %31, i64 4
  %41 = load i32, ptr %40, align 4, !tbaa !28
  %42 = sext i32 %41 to i64
  %43 = getelementptr inbounds i32, ptr %35, i64 %42
  %44 = icmp sgt i32 %37, 0
  %45 = icmp sgt i32 %41, 0
  %46 = select i1 %44, i1 %45, i1 false
  br i1 %46, label %.lr.ph.i, label %.preheader55.i

.preheader55.i:                                   ; preds = %63, %.split25.us
  %.049.lcssa.i = phi ptr [ %35, %.split25.us ], [ %.150.i, %63 ]
  %.046.lcssa.i = phi ptr [ %33, %.split25.us ], [ %.147.i, %63 ]
  %.042.lcssa.i = phi ptr [ %33, %.split25.us ], [ %.143.i, %63 ]
  %.040.lcssa.i = phi ptr [ %35, %.split25.us ], [ %.141.i, %63 ]
  %47 = icmp ult ptr %.046.lcssa.i, %39
  br i1 %47, label %.lr.ph70.i, label %.preheader.i

.lr.ph.i:                                         ; preds = %.split25.us, %63
  %.04063.i = phi ptr [ %.141.i, %63 ], [ %35, %.split25.us ]
  %.04262.i = phi ptr [ %.143.i, %63 ], [ %33, %.split25.us ]
  %.04661.i = phi ptr [ %.147.i, %63 ], [ %33, %.split25.us ]
  %.04960.i = phi ptr [ %.150.i, %63 ], [ %35, %.split25.us ]
  %48 = load i32, ptr %.04661.i, align 4, !tbaa !31
  %49 = load i32, ptr %.04960.i, align 4, !tbaa !31
  %.unshifted.i = xor i32 %49, %48
  %50 = icmp ult i32 %.unshifted.i, 2
  br i1 %50, label %51, label %55

51:                                               ; preds = %.lr.ph.i
  %.not.i = icmp eq i32 %48, %49
  br i1 %.not.i, label %52, label %Gia_ManFindFirstCommonLit.exit

52:                                               ; preds = %51
  %53 = getelementptr inbounds nuw i8, ptr %.04661.i, i64 4
  %54 = getelementptr inbounds nuw i8, ptr %.04960.i, i64 4
  br label %63

55:                                               ; preds = %.lr.ph.i
  %56 = icmp slt i32 %48, %49
  br i1 %56, label %57, label %60

57:                                               ; preds = %55
  %58 = getelementptr inbounds nuw i8, ptr %.04661.i, i64 4
  %59 = getelementptr inbounds nuw i8, ptr %.04262.i, i64 4
  store i32 %48, ptr %.04262.i, align 4, !tbaa !31
  br label %63

60:                                               ; preds = %55
  %61 = getelementptr inbounds nuw i8, ptr %.04960.i, i64 4
  %62 = getelementptr inbounds nuw i8, ptr %.04063.i, i64 4
  store i32 %49, ptr %.04063.i, align 4, !tbaa !31
  br label %63

63:                                               ; preds = %60, %57, %52
  %.150.i = phi ptr [ %54, %52 ], [ %.04960.i, %57 ], [ %61, %60 ]
  %.147.i = phi ptr [ %53, %52 ], [ %58, %57 ], [ %.04661.i, %60 ]
  %.143.i = phi ptr [ %.04262.i, %52 ], [ %59, %57 ], [ %.04262.i, %60 ]
  %.141.i = phi ptr [ %.04063.i, %52 ], [ %.04063.i, %57 ], [ %62, %60 ]
  %64 = icmp ult ptr %.147.i, %39
  %65 = icmp ult ptr %.150.i, %43
  %66 = select i1 %64, i1 %65, i1 false
  br i1 %66, label %.lr.ph.i, label %.preheader55.i, !llvm.loop !138

.preheader.i:                                     ; preds = %.lr.ph70.i, %.preheader55.i
  %.244.lcssa.i = phi ptr [ %.042.lcssa.i, %.preheader55.i ], [ %70, %.lr.ph70.i ]
  %67 = icmp ult ptr %.049.lcssa.i, %43
  br i1 %67, label %.lr.ph74.i, label %._crit_edge.i

.lr.ph70.i:                                       ; preds = %.preheader55.i, %.lr.ph70.i
  %.24469.i = phi ptr [ %70, %.lr.ph70.i ], [ %.042.lcssa.i, %.preheader55.i ]
  %.24868.i = phi ptr [ %68, %.lr.ph70.i ], [ %.046.lcssa.i, %.preheader55.i ]
  %68 = getelementptr inbounds nuw i8, ptr %.24868.i, i64 4
  %69 = load i32, ptr %.24868.i, align 4, !tbaa !31
  %70 = getelementptr inbounds nuw i8, ptr %.24469.i, i64 4
  store i32 %69, ptr %.24469.i, align 4, !tbaa !31
  %71 = icmp ult ptr %68, %39
  br i1 %71, label %.lr.ph70.i, label %.preheader.i, !llvm.loop !139

.lr.ph74.i:                                       ; preds = %.preheader.i, %.lr.ph74.i
  %.273.i = phi ptr [ %74, %.lr.ph74.i ], [ %.040.lcssa.i, %.preheader.i ]
  %.25172.i = phi ptr [ %72, %.lr.ph74.i ], [ %.049.lcssa.i, %.preheader.i ]
  %72 = getelementptr inbounds nuw i8, ptr %.25172.i, i64 4
  %73 = load i32, ptr %.25172.i, align 4, !tbaa !31
  %74 = getelementptr inbounds nuw i8, ptr %.273.i, i64 4
  store i32 %73, ptr %.273.i, align 4, !tbaa !31
  %75 = icmp ult ptr %72, %43
  br i1 %75, label %.lr.ph74.i, label %._crit_edge.i, !llvm.loop !140

._crit_edge.i:                                    ; preds = %.lr.ph74.i, %.preheader.i
  %.2.lcssa.i = phi ptr [ %.040.lcssa.i, %.preheader.i ], [ %74, %.lr.ph74.i ]
  %76 = ptrtoint ptr %.244.lcssa.i to i64
  %77 = ptrtoint ptr %33 to i64
  %78 = sub i64 %76, %77
  %79 = lshr exact i64 %78, 2
  %80 = trunc i64 %79 to i32
  store i32 %80, ptr %36, align 4, !tbaa !28
  %81 = ptrtoint ptr %.2.lcssa.i to i64
  %82 = ptrtoint ptr %35 to i64
  %83 = sub i64 %81, %82
  %84 = lshr exact i64 %83, 2
  %85 = trunc i64 %84 to i32
  store i32 %85, ptr %40, align 4, !tbaa !28
  br label %Gia_ManFindFirstCommonLit.exit

Gia_ManFindFirstCommonLit.exit:                   ; preds = %51, %._crit_edge.i
  %.045.i = phi i32 [ -1, %._crit_edge.i ], [ %48, %51 ]
  ret i32 %.045.i
}